; Function Attrs: mustprogress nofree norecurse nosync nounwind willreturn memory(read, inaccessiblemem: none) uwtable
define internal range(i64 0, 11) i64 @H5O__ginfo_size(ptr readnone captures(none) %0, i1 zeroext %1, ptr noundef readonly captures(none) %2) #2 {
  %4 = load i8, ptr @H5O_init_g, align 1, !tbaa !3, !range !7, !noundef !8
  %5 = trunc nuw i8 %4 to i1
  %6 = load i8, ptr @H5_libterm_g, align 1, !range !7
  %7 = trunc nuw i8 %6 to i1
  %8 = xor i1 %7, true
  %9 = select i1 %5, i1 true, i1 %8
  br i1 %9, label %10, label %20, !prof !9

10:                                               ; preds = %3
  %11 = getelementptr inbounds nuw i8, ptr %2, i64 4
  %12 = load i8, ptr %11, align 4, !tbaa !13, !range !7, !noundef !8
  %13 = trunc nuw i8 %12 to i1
  %14 = select i1 %13, i64 6, i64 2
  %15 = getelementptr inbounds nuw i8, ptr %2, i64 10
  %16 = load i8, ptr %15, align 2, !tbaa !17, !range !7, !noundef !8
  %17 = trunc nuw i8 %16 to i1
  %18 = select i1 %17, i64 4, i64 0
  %19 = add nuw nsw i64 %18, %14
  br label %20

20:                                               ; preds = %10, %3
  %.0 = phi i64 [ %19, %10 ], [ 0, %3 ]
  ret i64 %.0
}